; Function Attrs: nofree norecurse nosync nounwind memory(readwrite, inaccessiblemem: none) uwtable
define void @Aig_TableDelete(ptr noundef readonly captures(none) %0, ptr noundef %1) local_unnamed_addr #4 {
  %3 = getelementptr i8, ptr %0, i64 160
  %.val = load ptr, ptr %3, align 8
  %4 = getelementptr i8, ptr %0, i64 168
  %.val5 = load i32, ptr %4, align 8
  %5 = getelementptr i8, ptr %1, i64 24
  %.val.i.i = load i64, ptr %5, align 8
  %6 = and i64 %.val.i.i, 7
  %7 = icmp eq i64 %6, 6
  %8 = select i1 %7, i64 1699, i64 0
  %9 = getelementptr i8, ptr %1, i64 8
  %.val10.i.i = load ptr, ptr %9, align 8
  %10 = ptrtoint ptr %.val10.i.i to i64
  %11 = and i64 %10, -2
  %12 = inttoptr i64 %11 to ptr
  %13 = getelementptr inbounds nuw i8, ptr %12, i64 36
  %14 = load i32, ptr %13, align 4
  %15 = mul nsw i32 %14, 7937
  %16 = sext i32 %15 to i64
  %17 = xor i64 %8, %16
  %18 = getelementptr i8, ptr %1, i64 16
  %.val11.i.i = load ptr, ptr %18, align 8
  %19 = ptrtoint ptr %.val11.i.i to i64
  %20 = and i64 %19, -2
  %21 = inttoptr i64 %20 to ptr
  %22 = getelementptr inbounds nuw i8, ptr %21, i64 36
  %23 = load i32, ptr %22, align 4
  %24 = mul nsw i32 %23, 2971
  %25 = sext i32 %24 to i64
  %26 = trunc i64 %10 to i1
  %27 = select i1 %26, i64 911, i64 0
  %28 = trunc i64 %19 to i1
  %29 = select i1 %28, i64 353, i64 0
  %30 = xor i64 %17, %27
  %31 = xor i64 %30, %25
  %32 = xor i64 %31, %29
  %33 = sext i32 %.val5 to i64
  %34 = urem i64 %32, %33
  %35 = getelementptr inbounds ptr, ptr %.val, i64 %34
  br label %36

36:                                               ; preds = %36, %2
  %.0.i = phi ptr [ %35, %2 ], [ %37, %36 ]
  %37 = load ptr, ptr %.0.i, align 8
  %.not.i = icmp eq ptr %37, null
  %38 = icmp eq ptr %37, %1
  %or.cond.i = or i1 %.not.i, %38
  br i1 %or.cond.i, label %Aig_TableFind.exit, label %36, !llvm.loop !7

Aig_TableFind.exit:                               ; preds = %36
  %39 = load ptr, ptr %1, align 8
  store ptr %39, ptr %.0.i, align 8
  store ptr null, ptr %1, align 8
  ret void
}